; Function Attrs: mustprogress nounwind uwtable
define hidden noundef zeroext i1 @_ZN12Dependencies23is_concrete_root_methodEP6MethodP13InstanceKlass(ptr noundef readonly %0, ptr noundef %1) local_unnamed_addr #0 align 2 {
  %3 = icmp eq ptr %0, null
  br i1 %3, label %18, label %4

4:                                                ; preds = %2
  %5 = getelementptr inbounds i8, ptr %1, i64 164
  %6 = load i32, ptr %5, align 4
  %7 = and i32 %6, 512
  %.not = icmp eq i32 %7, 0
  br i1 %.not, label %10, label %8

8:                                                ; preds = %4
  %9 = tail call noundef ptr @_ZNK13InstanceKlass11implementorEv(ptr noundef nonnull align 8 dereferenceable(464) %1) #18
  br label %10

10:                                               ; preds = %8, %4
  %.08 = phi ptr [ %9, %8 ], [ %1, %4 ]
  %11 = getelementptr inbounds i8, ptr %0, i64 8
  %12 = load ptr, ptr %11, align 8
  %13 = getelementptr inbounds i8, ptr %12, i64 8
  %14 = load ptr, ptr %13, align 8
  %15 = getelementptr inbounds i8, ptr %14, i64 24
  %16 = load ptr, ptr %15, align 8
  %17 = tail call noundef zeroext i1 @_ZNK5Klass14is_subclass_ofEPKS_(ptr noundef nonnull align 8 dereferenceable(196) %.08, ptr noundef %16) #18
  br label %18

18:                                               ; preds = %2, %10
  %.0 = phi i1 [ %17, %10 ], [ false, %2 ]
  ret i1 %.0
}